target datalayout = "e-m:e-p270:32:32-p271:32:32-p272:64:64-i64:64-i128:128-f80:128-n8:16:32:64-S128"
target triple = "x86_64-pc-linux-gnu"

%struct._exr_decode_pipeline = type { i64, ptr, i16, i16, i32, ptr, %struct.exr_chunk_info_t, i32, i32, i64, ptr, ptr, i64, ptr, i64, ptr, i64, ptr, i64, ptr, i64, ptr, i64, ptr, ptr, ptr, ptr, ptr, ptr, [5 x %struct.exr_coding_channel_info_t] }
%struct.exr_chunk_info_t = type { i32, i32, i32, i32, i32, i8, i8, i8, i8, i64, i64, i64, i64, i64 }
%struct.exr_coding_channel_info_t = type { ptr, i32, i32, i32, i32, i8, i8, i16, i16, i16, i32, i32, %union.anon }
%union.anon = type { ptr }

; Function Attrs: nounwind uwtable
define internal i32 @unpack_16bit_4chan_planar(ptr noundef %0) #0 {
  %2 = alloca ptr, align 8
  %3 = alloca ptr, align 8
  %4 = alloca ptr, align 8
  %5 = alloca ptr, align 8
  %6 = alloca ptr, align 8
  %7 = alloca ptr, align 8
  %8 = alloca ptr, align 8
  %9 = alloca ptr, align 8
  %10 = alloca ptr, align 8
  %11 = alloca ptr, align 8
  %12 = alloca i32, align 4
  %13 = alloca i32, align 4
  %14 = alloca i32, align 4
  %15 = alloca i32, align 4
  %16 = alloca i32, align 4
  %17 = alloca i32, align 4
  %18 = alloca i32, align 4
  store ptr %0, ptr %2, align 8, !tbaa !3
  call void @llvm.lifetime.start.p0(i64 8, ptr %3) #6
  %19 = load ptr, ptr %2, align 8, !tbaa !3
  %20 = getelementptr inbounds nuw %struct._exr_decode_pipeline, ptr %19, i32 0, i32 13
  %21 = load ptr, ptr %20, align 8, !tbaa !19
  store ptr %21, ptr %3, align 8, !tbaa !20
  call void @llvm.lifetime.start.p0(i64 8, ptr %4) #6
  call void @llvm.lifetime.start.p0(i64 8, ptr %5) #6
  call void @llvm.lifetime.start.p0(i64 8, ptr %6) #6
  call void @llvm.lifetime.start.p0(i64 8, ptr %7) #6
  call void @llvm.lifetime.start.p0(i64 8, ptr %8) #6
  call void @llvm.lifetime.start.p0(i64 8, ptr %9) #6
  call void @llvm.lifetime.start.p0(i64 8, ptr %10) #6
  call void @llvm.lifetime.start.p0(i64 8, ptr %11) #6
  call void @llvm.lifetime.start.p0(i64 4, ptr %12) #6
  call void @llvm.lifetime.start.p0(i64 4, ptr %13) #6
  call void @llvm.lifetime.start.p0(i64 4, ptr %14) #6
  call void @llvm.lifetime.start.p0(i64 4, ptr %15) #6
  call void @llvm.lifetime.start.p0(i64 4, ptr %16) #6
  call void @llvm.lifetime.start.p0(i64 4, ptr %17) #6
  %22 = load ptr, ptr %2, align 8, !tbaa !3
  %23 = getelementptr inbounds nuw %struct._exr_decode_pipeline, ptr %22, i32 0, i32 1
  %24 = load ptr, ptr %23, align 8, !tbaa !28
  %25 = getelementptr inbounds %struct.exr_coding_channel_info_t, ptr %24, i64 0
  %26 = getelementptr inbounds nuw %struct.exr_coding_channel_info_t, ptr %25, i32 0, i32 2
  %27 = load i32, ptr %26, align 4, !tbaa !72
  store i32 %27, ptr %12, align 4, !tbaa !8
  %28 = load ptr, ptr %2, align 8, !tbaa !3
  %29 = getelementptr inbounds nuw %struct._exr_decode_pipeline, ptr %28, i32 0, i32 6
  %30 = getelementptr inbounds nuw %struct.exr_chunk_info_t, ptr %29, i32 0, i32 3
  %31 = load i32, ptr %30, align 4, !tbaa !25
  %32 = load ptr, ptr %2, align 8, !tbaa !3
  %33 = getelementptr inbounds nuw %struct._exr_decode_pipeline, ptr %32, i32 0, i32 8
  %34 = load i32, ptr %33, align 4, !tbaa !26
  %35 = sub nsw i32 %31, %34
  store i32 %35, ptr %13, align 4, !tbaa !8
  %36 = load ptr, ptr %2, align 8, !tbaa !3
  %37 = getelementptr inbounds nuw %struct._exr_decode_pipeline, ptr %36, i32 0, i32 1
  %38 = load ptr, ptr %37, align 8, !tbaa !28
  %39 = getelementptr inbounds %struct.exr_coding_channel_info_t, ptr %38, i64 0
  %40 = getelementptr inbounds nuw %struct.exr_coding_channel_info_t, ptr %39, i32 0, i32 11
  %41 = load i32, ptr %40, align 4, !tbaa !37
  store i32 %41, ptr %14, align 4, !tbaa !8
  %42 = load ptr, ptr %2, align 8, !tbaa !3
  %43 = getelementptr inbounds nuw %struct._exr_decode_pipeline, ptr %42, i32 0, i32 1
  %44 = load ptr, ptr %43, align 8, !tbaa !28
  %45 = getelementptr inbounds %struct.exr_coding_channel_info_t, ptr %44, i64 1
  %46 = getelementptr inbounds nuw %struct.exr_coding_channel_info_t, ptr %45, i32 0, i32 11
  %47 = load i32, ptr %46, align 4, !tbaa !37
  store i32 %47, ptr %15, align 4, !tbaa !8
  %48 = load ptr, ptr %2, align 8, !tbaa !3
  %49 = getelementptr inbounds nuw %struct._exr_decode_pipeline, ptr %48, i32 0, i32 1
  %50 = load ptr, ptr %49, align 8, !tbaa !28
  %51 = getelementptr inbounds %struct.exr_coding_channel_info_t, ptr %50, i64 2
  %52 = getelementptr inbounds nuw %struct.exr_coding_channel_info_t, ptr %51, i32 0, i32 11
  %53 = load i32, ptr %52, align 4, !tbaa !37
  store i32 %53, ptr %16, align 4, !tbaa !8
  %54 = load ptr, ptr %2, align 8, !tbaa !3
  %55 = getelementptr inbounds nuw %struct._exr_decode_pipeline, ptr %54, i32 0, i32 1
  %56 = load ptr, ptr %55, align 8, !tbaa !28
  %57 = getelementptr inbounds %struct.exr_coding_channel_info_t, ptr %56, i64 3
  %58 = getelementptr inbounds nuw %struct.exr_coding_channel_info_t, ptr %57, i32 0, i32 11
  %59 = load i32, ptr %58, align 4, !tbaa !37
  store i32 %59, ptr %17, align 4, !tbaa !8
  %60 = load ptr, ptr %2, align 8, !tbaa !3
  %61 = getelementptr inbounds nuw %struct._exr_decode_pipeline, ptr %60, i32 0, i32 1
  %62 = load ptr, ptr %61, align 8, !tbaa !28
  %63 = getelementptr inbounds %struct.exr_coding_channel_info_t, ptr %62, i64 0
  %64 = getelementptr inbounds nuw %struct.exr_coding_channel_info_t, ptr %63, i32 0, i32 12
  %65 = load ptr, ptr %64, align 8, !tbaa !10
  store ptr %65, ptr %8, align 8, !tbaa !20
  %66 = load ptr, ptr %2, align 8, !tbaa !3
  %67 = getelementptr inbounds nuw %struct._exr_decode_pipeline, ptr %66, i32 0, i32 1
  %68 = load ptr, ptr %67, align 8, !tbaa !28
  %69 = getelementptr inbounds %struct.exr_coding_channel_info_t, ptr %68, i64 1
  %70 = getelementptr inbounds nuw %struct.exr_coding_channel_info_t, ptr %69, i32 0, i32 12
  %71 = load ptr, ptr %70, align 8, !tbaa !10
  store ptr %71, ptr %9, align 8, !tbaa !20
  %72 = load ptr, ptr %2, align 8, !tbaa !3
  %73 = getelementptr inbounds nuw %struct._exr_decode_pipeline, ptr %72, i32 0, i32 1
  %74 = load ptr, ptr %73, align 8, !tbaa !28
  %75 = getelementptr inbounds %struct.exr_coding_channel_info_t, ptr %74, i64 2
  %76 = getelementptr inbounds nuw %struct.exr_coding_channel_info_t, ptr %75, i32 0, i32 12
  %77 = load ptr, ptr %76, align 8, !tbaa !10
  store ptr %77, ptr %10, align 8, !tbaa !20
  %78 = load ptr, ptr %2, align 8, !tbaa !3
  %79 = getelementptr inbounds nuw %struct._exr_decode_pipeline, ptr %78, i32 0, i32 1
  %80 = load ptr, ptr %79, align 8, !tbaa !28
  %81 = getelementptr inbounds %struct.exr_coding_channel_info_t, ptr %80, i64 3
  %82 = getelementptr inbounds nuw %struct.exr_coding_channel_info_t, ptr %81, i32 0, i32 12
  %83 = load ptr, ptr %82, align 8, !tbaa !10
  store ptr %83, ptr %11, align 8, !tbaa !20
  %84 = load ptr, ptr %2, align 8, !tbaa !3
  %85 = getelementptr inbounds nuw %struct._exr_decode_pipeline, ptr %84, i32 0, i32 7
  %86 = load i32, ptr %85, align 8, !tbaa !27
  %87 = load i32, ptr %12, align 4, !tbaa !8
  %88 = mul nsw i32 %86, %87
  %89 = mul nsw i32 %88, 8
  %90 = load ptr, ptr %3, align 8, !tbaa !20
  %91 = sext i32 %89 to i64
  %92 = getelementptr inbounds i8, ptr %90, i64 %91
  store ptr %92, ptr %3, align 8, !tbaa !20
  call void @llvm.lifetime.start.p0(i64 4, ptr %18) #6
  %93 = load ptr, ptr %2, align 8, !tbaa !3
  %94 = getelementptr inbounds nuw %struct._exr_decode_pipeline, ptr %93, i32 0, i32 7
  %95 = load i32, ptr %94, align 8, !tbaa !27
  store i32 %95, ptr %18, align 4, !tbaa !8
  br label %96

96:                                               ; preds = %156, %1
  %97 = load i32, ptr %18, align 4, !tbaa !8
  %98 = load i32, ptr %13, align 4, !tbaa !8
  %99 = icmp slt i32 %97, %98
  br i1 %99, label %101, label %100

100:                                              ; preds = %96
  call void @llvm.lifetime.end.p0(i64 4, ptr %18) #6
  br label %159

101:                                              ; preds = %96
  %102 = load ptr, ptr %3, align 8, !tbaa !20
  store ptr %102, ptr %4, align 8, !tbaa !42
  %103 = load ptr, ptr %4, align 8, !tbaa !42
  %104 = load i32, ptr %12, align 4, !tbaa !8
  %105 = sext i32 %104 to i64
  %106 = getelementptr inbounds i16, ptr %103, i64 %105
  store ptr %106, ptr %5, align 8, !tbaa !42
  %107 = load ptr, ptr %5, align 8, !tbaa !42
  %108 = load i32, ptr %12, align 4, !tbaa !8
  %109 = sext i32 %108 to i64
  %110 = getelementptr inbounds i16, ptr %107, i64 %109
  store ptr %110, ptr %6, align 8, !tbaa !42
  %111 = load ptr, ptr %6, align 8, !tbaa !42
  %112 = load i32, ptr %12, align 4, !tbaa !8
  %113 = sext i32 %112 to i64
  %114 = getelementptr inbounds i16, ptr %111, i64 %113
  store ptr %114, ptr %7, align 8, !tbaa !42
  %115 = load i32, ptr %12, align 4, !tbaa !8
  %116 = mul nsw i32 %115, 8
  %117 = load ptr, ptr %3, align 8, !tbaa !20
  %118 = sext i32 %116 to i64
  %119 = getelementptr inbounds i8, ptr %117, i64 %118
  store ptr %119, ptr %3, align 8, !tbaa !20
  %120 = load ptr, ptr %8, align 8, !tbaa !20
  %121 = load ptr, ptr %4, align 8, !tbaa !42
  %122 = load i32, ptr %12, align 4, !tbaa !8
  %123 = sext i32 %122 to i64
  %124 = mul i64 %123, 2
  call void @llvm.memcpy.p0.p0.i64(ptr align 1 %120, ptr align 2 %121, i64 %124, i1 false)
  %125 = load ptr, ptr %9, align 8, !tbaa !20
  %126 = load ptr, ptr %5, align 8, !tbaa !42
  %127 = load i32, ptr %12, align 4, !tbaa !8
  %128 = sext i32 %127 to i64
  %129 = mul i64 %128, 2
  call void @llvm.memcpy.p0.p0.i64(ptr align 1 %125, ptr align 2 %126, i64 %129, i1 false)
  %130 = load ptr, ptr %10, align 8, !tbaa !20
  %131 = load ptr, ptr %6, align 8, !tbaa !42
  %132 = load i32, ptr %12, align 4, !tbaa !8
  %133 = sext i32 %132 to i64
  %134 = mul i64 %133, 2
  call void @llvm.memcpy.p0.p0.i64(ptr align 1 %130, ptr align 2 %131, i64 %134, i1 false)
  %135 = load ptr, ptr %11, align 8, !tbaa !20
  %136 = load ptr, ptr %7, align 8, !tbaa !42
  %137 = load i32, ptr %12, align 4, !tbaa !8
  %138 = sext i32 %137 to i64
  %139 = mul i64 %138, 2
  call void @llvm.memcpy.p0.p0.i64(ptr align 1 %135, ptr align 2 %136, i64 %139, i1 false)
  %140 = load i32, ptr %14, align 4, !tbaa !8
  %141 = load ptr, ptr %8, align 8, !tbaa !20
  %142 = sext i32 %140 to i64
  %143 = getelementptr inbounds i8, ptr %141, i64 %142
  store ptr %143, ptr %8, align 8, !tbaa !20
  %144 = load i32, ptr %15, align 4, !tbaa !8
  %145 = load ptr, ptr %9, align 8, !tbaa !20
  %146 = sext i32 %144 to i64
  %147 = getelementptr inbounds i8, ptr %145, i64 %146
  store ptr %147, ptr %9, align 8, !tbaa !20
  %148 = load i32, ptr %16, align 4, !tbaa !8
  %149 = load ptr, ptr %10, align 8, !tbaa !20
  %150 = sext i32 %148 to i64
  %151 = getelementptr inbounds i8, ptr %149, i64 %150
  store ptr %151, ptr %10, align 8, !tbaa !20
  %152 = load i32, ptr %17, align 4, !tbaa !8
  %153 = load ptr, ptr %11, align 8, !tbaa !20
  %154 = sext i32 %152 to i64
  %155 = getelementptr inbounds i8, ptr %153, i64 %154
  store ptr %155, ptr %11, align 8, !tbaa !20
  br label %156

156:                                              ; preds = %101
  %157 = load i32, ptr %18, align 4, !tbaa !8
  %158 = add nsw i32 %157, 1
  store i32 %158, ptr %18, align 4, !tbaa !8
  br label %96, !llvm.loop !108

159:                                              ; preds = %100
  call void @llvm.lifetime.end.p0(i64 4, ptr %17) #6
  call void @llvm.lifetime.end.p0(i64 4, ptr %16) #6
  call void @llvm.lifetime.end.p0(i64 4, ptr %15) #6
  call void @llvm.lifetime.end.p0(i64 4, ptr %14) #6
  call void @llvm.lifetime.end.p0(i64 4, ptr %13) #6
  call void @llvm.lifetime.end.p0(i64 4, ptr %12) #6
  call void @llvm.lifetime.end.p0(i64 8, ptr %11) #6
  call void @llvm.lifetime.end.p0(i64 8, ptr %10) #6
  call void @llvm.lifetime.end.p0(i64 8, ptr %9) #6
  call void @llvm.lifetime.end.p0(i64 8, ptr %8) #6
  call void @llvm.lifetime.end.p0(i64 8, ptr %7) #6
  call void @llvm.lifetime.end.p0(i64 8, ptr %6) #6
  call void @llvm.lifetime.end.p0(i64 8, ptr %5) #6
  call void @llvm.lifetime.end.p0(i64 8, ptr %4) #6
  call void @llvm.lifetime.end.p0(i64 8, ptr %3) #6
  ret i32 0
}