; Function Attrs: nofree norecurse nosync nounwind memory(readwrite, inaccessiblemem: none) uwtable
define internal noundef i32 @unpack_16bit_4chan_planar(ptr noundef readonly captures(none) %0) #1 {
  %2 = getelementptr inbounds nuw i8, ptr %0, i64 44
  %3 = load i32, ptr %2, align 4, !tbaa !16
  %4 = getelementptr inbounds nuw i8, ptr %0, i64 100
  %5 = load i32, ptr %4, align 4, !tbaa !17
  %6 = sub nsw i32 %3, %5
  %7 = getelementptr inbounds nuw i8, ptr %0, i64 96
  %8 = load i32, ptr %7, align 8, !tbaa !19
  %9 = icmp slt i32 %8, %6
  br i1 %9, label %.lr.ph, label %._crit_edge

.lr.ph:                                           ; preds = %1
  %10 = getelementptr inbounds nuw i8, ptr %0, i64 136
  %11 = load ptr, ptr %10, align 8, !tbaa !21
  %12 = getelementptr inbounds nuw i8, ptr %0, i64 8
  %13 = load ptr, ptr %12, align 8, !tbaa !22
  %14 = getelementptr inbounds nuw i8, ptr %13, i64 12
  %15 = load i32, ptr %14, align 4, !tbaa !65
  %16 = shl i32 %15, 3
  %17 = mul i32 %16, %8
  %18 = sext i32 %17 to i64
  %19 = getelementptr inbounds i8, ptr %11, i64 %18
  %20 = getelementptr inbounds nuw i8, ptr %13, i64 184
  %21 = load ptr, ptr %20, align 8, !tbaa !3
  %22 = getelementptr inbounds nuw i8, ptr %13, i64 136
  %23 = load ptr, ptr %22, align 8, !tbaa !3
  %24 = getelementptr inbounds nuw i8, ptr %13, i64 88
  %25 = load ptr, ptr %24, align 8, !tbaa !3
  %26 = getelementptr inbounds nuw i8, ptr %13, i64 40
  %27 = load ptr, ptr %26, align 8, !tbaa !3
  %28 = getelementptr inbounds nuw i8, ptr %13, i64 180
  %29 = load i32, ptr %28, align 4, !tbaa !32
  %30 = getelementptr inbounds nuw i8, ptr %13, i64 132
  %31 = load i32, ptr %30, align 4, !tbaa !32
  %32 = getelementptr inbounds nuw i8, ptr %13, i64 84
  %33 = load i32, ptr %32, align 4, !tbaa !32
  %34 = getelementptr inbounds nuw i8, ptr %13, i64 36
  %35 = load i32, ptr %34, align 4, !tbaa !32
  %36 = sext i32 %15 to i64
  %37 = sext i32 %16 to i64
  %38 = shl nsw i64 %36, 1
  %39 = sext i32 %35 to i64
  %40 = sext i32 %33 to i64
  %41 = sext i32 %31 to i64
  %42 = sext i32 %29 to i64
  br label %43

._crit_edge:                                      ; preds = %43, %1
  ret i32 0

43:                                               ; preds = %.lr.ph, %43
  %.057 = phi i32 [ %8, %.lr.ph ], [ %52, %43 ]
  %.04756 = phi ptr [ %19, %.lr.ph ], [ %47, %43 ]
  %.04855 = phi ptr [ %27, %.lr.ph ], [ %48, %43 ]
  %.04954 = phi ptr [ %25, %.lr.ph ], [ %49, %43 ]
  %.05053 = phi ptr [ %23, %.lr.ph ], [ %50, %43 ]
  %.05152 = phi ptr [ %21, %.lr.ph ], [ %51, %43 ]
  %44 = getelementptr inbounds i16, ptr %.04756, i64 %36
  %45 = getelementptr inbounds i16, ptr %44, i64 %36
  %46 = getelementptr inbounds i16, ptr %45, i64 %36
  %47 = getelementptr inbounds i8, ptr %.04756, i64 %37
  tail call void @llvm.memcpy.p0.p0.i64(ptr align 1 %.04855, ptr align 2 %.04756, i64 %38, i1 false)
  tail call void @llvm.memcpy.p0.p0.i64(ptr align 1 %.04954, ptr align 2 %44, i64 %38, i1 false)
  tail call void @llvm.memcpy.p0.p0.i64(ptr align 1 %.05053, ptr align 2 %45, i64 %38, i1 false)
  tail call void @llvm.memcpy.p0.p0.i64(ptr align 1 %.05152, ptr align 2 %46, i64 %38, i1 false)
  %48 = getelementptr inbounds i8, ptr %.04855, i64 %39
  %49 = getelementptr inbounds i8, ptr %.04954, i64 %40
  %50 = getelementptr inbounds i8, ptr %.05053, i64 %41
  %51 = getelementptr inbounds i8, ptr %.05152, i64 %42
  %52 = add nsw i32 %.057, 1
  %53 = icmp slt i32 %52, %6
  br i1 %53, label %43, label %._crit_edge, !llvm.loop !98
}